###############################################################################
#                                                                             #
# IAR C/C++ Compiler V8.20.2.41139 for 8051             17/Aug/2016  14:41:20 #
# Copyright 2004-2013 IAR Systems AB.                                         #
#                                                                             #
#    Core               =  plain                                              #
#    Code model         =  banked                                             #
#    Data model         =  large                                              #
#    Calling convention =  xdata reentrant                                    #
#    Constant location  =  data_rom                                           #
#    Dptr setup         =  1,16                                               #
#                                                                             #
#    Source file        =  E:\AndroidStu\ZSTACK-GTAMODBUS-v1.0（鄢文）\Projec #
#                          ts\zstack\Utilities\Transmit\Source\ControlModule. #
#                          c                                                  #
#    Command line       =  -f E:\AndroidStu\ZSTACK-GTAMODBUS-v1.0（鄢文）\Pro #
#                          jects\zstack\Utilities\Transmit\CC2530DB\..\..\..\ #
#                          Tools\CC2530DB\f8wEndev.cfg (-DCPU32MHZ            #
#                          -DROOT=__near_func -DMAC_CFG_TX_DATA_MAX=3         #
#                          -DMAC_CFG_TX_MAX=6 -DMAC_CFG_RX_MAX=3) -f          #
#                          E:\AndroidStu\ZSTACK-GTAMODBUS-v1.0（鄢文）\Projec #
#                          ts\zstack\Utilities\Transmit\CC2530DB\..\..\..\Too #
#                          ls\CC2530DB\f8wConfig.cfg (-DZIGBEEPRO -DSECURE=0  #
#                          -DZG_SECURE_DYNAMIC=0 -DREFLECTOR                  #
#                          -DDEFAULT_CHANLIST=0x00001000                      #
#                          -DZDAPP_CONFIG_PAN_ID=0x1178                       #
#                          -DNWK_START_DELAY=100 -DEXTENDED_JOINING_RANDOM_MA #
#                          SK=0x007F -DBEACON_REQUEST_DELAY=100               #
#                          -DBEACON_REQ_DELAY_MASK=0x00FF                     #
#                          -DLINK_STATUS_JITTER_MASK=0x007F                   #
#                          -DROUTE_EXPIRY_TIME=30 -DAPSC_ACK_WAIT_DURATION_PO #
#                          LLED=3000 -DNWK_INDIRECT_MSG_TIMEOUT=3             #
#                          -DMAX_RREQ_ENTRIES=8 -DAPSC_MAX_FRAME_RETRIES=2    #
#                          -DNWK_MAX_DATA_RETRIES=2                           #
#                          -DMAX_POLL_FAILURE_RETRIES=2 -DMAX_BCAST=9         #
#                          -DAPS_MAX_GROUPS=16 -DMAX_RTG_ENTRIES=40           #
#                          -DNWK_MAX_BINDING_ENTRIES=4                        #
#                          -DMAX_BINDING_CLUSTER_IDS=4 "-DDEFAULT_KEY={0x01,  #
#                          0x03, 0x05, 0x07, 0x09, 0x0B, 0x0D, 0x0F, 0x00,    #
#                          0x02, 0x04, 0x06, 0x08, 0x0A, 0x0C, 0x0D}"         #
#                          -DMAC_MAX_FRAME_SIZE=116                           #
#                          -DZDNWKMGR_MIN_TRANSMISSIONS=20 "-DCONST=const     #
#                          __code" -DGENERIC=__generic                        #
#                          -DRFD_RCVC_ALWAYS_ON=TRUE -DPOLL_RATE=1000         #
#                          -DQUEUED_POLL_RATE=100 -DRESPONSE_POLL_RATE=100)   #
#                          -DREJOIN_POLL_RATE=440 E:\AndroidStu\ZSTACK-GTAMOD #
#                          BUS-v1.0（鄢文）\Projects\zstack\Utilities\Transmi #
#                          t\Source\ControlModule.c -D xNWK_AUTO_POLL -D      #
#                          xMT_TASK -D xZTOOL_P1 -D xMT_SYS_FUNC -D           #
#                          xMT_ZDO_FUNC -D ZDNWKMGR_MIN_TRANSMISSIONS=0 -D    #
#                          xGTA_DEBUG -D ZIGBEEPRO -D GTA_WMSCB_R1 -lC        #
#                          E:\AndroidStu\ZSTACK-GTAMODBUS-v1.0（鄢文）\Projec #
#                          ts\zstack\Utilities\Transmit\CC2530DB\GTA-WMSCB-R1 #
#                          \List\ -lA E:\AndroidStu\ZSTACK-GTAMODBUS-v1.0（鄢 #
#                          文）\Projects\zstack\Utilities\Transmit\CC2530DB\G #
#                          TA-WMSCB-R1\List\ --diag_suppress Pe001,Pa010 -o   #
#                          E:\AndroidStu\ZSTACK-GTAMODBUS-v1.0（鄢文）\Projec #
#                          ts\zstack\Utilities\Transmit\CC2530DB\GTA-WMSCB-R1 #
#                          \Obj\ -e --no_code_motion --debug --core=plain     #
#                          --dptr=16,1 --data_model=large                     #
#                          --code_model=banked --calling_convention=xdata_ree #
#                          ntrant --place_constants=data_rom                  #
#                          --nr_virtual_regs 16 -I E:\AndroidStu\ZSTACK-GTAMO #
#                          DBUS-v1.0（鄢文）\Projects\zstack\Utilities\Transm #
#                          it\CC2530DB\ -I E:\AndroidStu\ZSTACK-GTAMODBUS-v1. #
#                          0（鄢文）\Projects\zstack\Utilities\Transmit\CC253 #
#                          0DB\..\Source\ -I E:\AndroidStu\ZSTACK-GTAMODBUS-v #
#                          1.0（鄢文）\Projects\zstack\Utilities\Transmit\CC2 #
#                          530DB\..\..\..\ZMain\TI2530DB\ -I                  #
#                          E:\AndroidStu\ZSTACK-GTAMODBUS-v1.0（鄢文）\Projec #
#                          ts\zstack\Utilities\Transmit\CC2530DB\..\..\..\..\ #
#                          ..\Components\hal\include\ -I                      #
#                          E:\AndroidStu\ZSTACK-GTAMODBUS-v1.0（鄢文）\Projec #
#                          ts\zstack\Utilities\Transmit\CC2530DB\..\..\..\..\ #
#                          ..\Components\hal\target\CC2530EB\ -I              #
#                          E:\AndroidStu\ZSTACK-GTAMODBUS-v1.0（鄢文）\Projec #
#                          ts\zstack\Utilities\Transmit\CC2530DB\..\..\..\..\ #
#                          ..\Components\mac\include\ -I                      #
#                          E:\AndroidStu\ZSTACK-GTAMODBUS-v1.0（鄢文）\Projec #
#                          ts\zstack\Utilities\Transmit\CC2530DB\..\..\..\..\ #
#                          ..\Components\mac\high_level\ -I                   #
#                          E:\AndroidStu\ZSTACK-GTAMODBUS-v1.0（鄢文）\Projec #
#                          ts\zstack\Utilities\Transmit\CC2530DB\..\..\..\..\ #
#                          ..\Components\mac\low_level\srf04\ -I              #
#                          E:\AndroidStu\ZSTACK-GTAMODBUS-v1.0（鄢文）\Projec #
#                          ts\zstack\Utilities\Transmit\CC2530DB\..\..\..\..\ #
#                          ..\Components\mac\low_level\srf04\single_chip\ -I  #
#                          E:\AndroidStu\ZSTACK-GTAMODBUS-v1.0（鄢文）\Projec #
#                          ts\zstack\Utilities\Transmit\CC2530DB\..\..\..\..\ #
#                          ..\Components\mt\ -I E:\AndroidStu\ZSTACK-GTAMODBU #
#                          S-v1.0（鄢文）\Projects\zstack\Utilities\Transmit\ #
#                          CC2530DB\..\..\..\..\..\Components\osal\include\   #
#                          -I E:\AndroidStu\ZSTACK-GTAMODBUS-v1.0（鄢文）\Pro #
#                          jects\zstack\Utilities\Transmit\CC2530DB\..\..\..\ #
#                          ..\..\Components\services\saddr\ -I                #
#                          E:\AndroidStu\ZSTACK-GTAMODBUS-v1.0（鄢文）\Projec #
#                          ts\zstack\Utilities\Transmit\CC2530DB\..\..\..\..\ #
#                          ..\Components\services\sdata\ -I                   #
#                          E:\AndroidStu\ZSTACK-GTAMODBUS-v1.0（鄢文）\Projec #
#                          ts\zstack\Utilities\Transmit\CC2530DB\..\..\..\..\ #
#                          ..\Components\stack\af\ -I                         #
#                          E:\AndroidStu\ZSTACK-GTAMODBUS-v1.0（鄢文）\Projec #
#                          ts\zstack\Utilities\Transmit\CC2530DB\..\..\..\..\ #
#                          ..\Components\stack\nwk\ -I                        #
#                          E:\AndroidStu\ZSTACK-GTAMODBUS-v1.0（鄢文）\Projec #
#                          ts\zstack\Utilities\Transmit\CC2530DB\..\..\..\..\ #
#                          ..\Components\stack\sapi\ -I                       #
#                          E:\AndroidStu\ZSTACK-GTAMODBUS-v1.0（鄢文）\Projec #
#                          ts\zstack\Utilities\Transmit\CC2530DB\..\..\..\..\ #
#                          ..\Components\stack\sec\ -I                        #
#                          E:\AndroidStu\ZSTACK-GTAMODBUS-v1.0（鄢文）\Projec #
#                          ts\zstack\Utilities\Transmit\CC2530DB\..\..\..\..\ #
#                          ..\Components\stack\sys\ -I                        #
#                          E:\AndroidStu\ZSTACK-GTAMODBUS-v1.0（鄢文）\Projec #
#                          ts\zstack\Utilities\Transmit\CC2530DB\..\..\..\..\ #
#                          ..\Components\stack\zdo\ -I                        #
#                          E:\AndroidStu\ZSTACK-GTAMODBUS-v1.0（鄢文）\Projec #
#                          ts\zstack\Utilities\Transmit\CC2530DB\..\..\..\..\ #
#                          ..\Components\zmac\ -I E:\AndroidStu\ZSTACK-GTAMOD #
#                          BUS-v1.0（鄢文）\Projects\zstack\Utilities\Transmi #
#                          t\CC2530DB\..\..\..\..\..\Components\zmac\f8w\     #
#                          -Ohz --require_prototypes                          #
#    List file          =  E:\AndroidStu\ZSTACK-GTAMODBUS-v1.0（鄢文）\Projec #
#                          ts\zstack\Utilities\Transmit\CC2530DB\GTA-WMSCB-R1 #
#                          \List\ControlModule.lst                            #
#    Object file        =  E:\AndroidStu\ZSTACK-GTAMODBUS-v1.0（鄢文）\Projec #
#                          ts\zstack\Utilities\Transmit\CC2530DB\GTA-WMSCB-R1 #
#                          \Obj\ControlModule.r51                             #
#                                                                             #
#                                                                             #
###############################################################################

E:\AndroidStu\ZSTACK-GTAMODBUS-v1.0（鄢文）\Projects\zstack\Utilities\Transmit\Source\ControlModule.c
      1          #include "ControlModule.h"

   \                                 In  segment SFR_AN, at 0x80
   \   union <unnamed> volatile __sfr _A_P0
   \                     _A_P0:
   \   000000                DS 1

   \                                 In  segment SFR_AN, at 0x90
   \   union <unnamed> volatile __sfr _A_P1
   \                     _A_P1:
   \   000000                DS 1

   \                                 In  segment SFR_AN, at 0xfd
   \   unsigned char volatile __sfr P0DIR
   \                     P0DIR:
   \   000000                DS 1

   \                                 In  segment SFR_AN, at 0xfe
   \   unsigned char volatile __sfr P1DIR
   \                     P1DIR:
   \   000000                DS 1
      2          //            数码管段码 0     1     2     3     4     5     6     7     8     9

   \                                 In  segment XDATA_ROM_C, align 1
      3          const uint8 smgCode[] = {0x3f, 0x30, 0x5b, 0x4f, 0x66, 0x6d, 0x7d, 0x07, 0x7f, 0x6f};
   \                     smgCode:
   \   000000   3F           DB 63
   \   000001   30           DB 48
   \   000002   5B           DB 91
   \   000003   4F           DB 79
   \   000004   66           DB 102
   \   000005   6D           DB 109
   \   000006   7D           DB 125
   \   000007   07           DB 7
   \   000008   7F           DB 127
   \   000009   6F           DB 111
      4          //电机正转

   \                                 In  segment XDATA_ROM_C, align 1
      5          const uint8 motorForewardCode[] = {0x08, 0x0c, 0x04, 0x06, 0x02, 0x03, 0x01, 0x09};
   \                     motorForewardCode:
   \   000000   08           DB 8
   \   000001   0C           DB 12
   \   000002   04           DB 4
   \   000003   06           DB 6
   \   000004   02           DB 2
   \   000005   03           DB 3
   \   000006   01           DB 1
   \   000007   09           DB 9
      6          //电机反转

   \                                 In  segment XDATA_ROM_C, align 1
      7          const uint8 motorReversalCode[] = {0x09, 0x01, 0x03, 0x02, 0x06, 0x04, 0x0c, 0x08};
   \                     motorReversalCode:
   \   000000   09           DB 9
   \   000001   01           DB 1
   \   000002   03           DB 3
   \   000003   02           DB 2
   \   000004   06           DB 6
   \   000005   04           DB 4
   \   000006   0C           DB 12
   \   000007   08           DB 8
      8          /**
      9          * 数码管显示num数字
     10          */

   \                                 In  segment BANKED_CODE, align 1, keep-with-next
     11          void DisplaySmg(uint8 num){
   \                     DisplaySmg:
   \   000000   74F7         MOV     A,#-0x9
   \   000002   12....       LCALL   ?BANKED_ENTER_XDATA
   \   000005                ; Saved register size: 9
   \   000005                ; Auto size: 0
   \   000005   E9           MOV     A,R1
   \   000006   FE           MOV     R6,A
     12              HC595IOInit();
   \   000007                ; Setup parameters for call to function HC595IOInit
   \   000007   12....       LCALL   ??HC595IOInit?relay
     13              HC595StoreData(smgCode[num%10]);
   \   00000A                ; Setup parameters for call to function HC595StoreData
   \   00000A   EE           MOV     A,R6
   \   00000B   75F00A       MOV     B,#0xa
   \   00000E   84           DIV     AB
   \   00000F   A8F0         MOV     R0,B
   \   000011   74..         MOV     A,#smgCode & 0xff
   \   000013   28           ADD     A,R0
   \   000014   F582         MOV     DPL,A
   \   000016   74..         MOV     A,#(smgCode >> 8) & 0xff
   \   000018   3400         ADDC    A,#0x0
   \   00001A   F583         MOV     DPH,A
   \   00001C   E0           MOVX    A,@DPTR
   \   00001D   F9           MOV     R1,A
   \   00001E   12....       LCALL   ??HC595StoreData?relay
     14              HC595StoreData(0x00);
   \   000021                ; Setup parameters for call to function HC595StoreData
   \   000021   7900         MOV     R1,#0x0
   \   000023   12....       LCALL   ??HC595StoreData?relay
     15              HC595StoreData(0x00);
   \   000026                ; Setup parameters for call to function HC595StoreData
   \   000026   7900         MOV     R1,#0x0
   \   000028   12....       LCALL   ??HC595StoreData?relay
     16              HC595StoreData(0x00);
   \   00002B                ; Setup parameters for call to function HC595StoreData
   \   00002B   7900         MOV     R1,#0x0
   \   00002D   12....       LCALL   ??HC595StoreData?relay
     17              HC595StoreData(0x00);
   \   000030                ; Setup parameters for call to function HC595StoreData
   \   000030   7900         MOV     R1,#0x0
   \   000032                REQUIRE ?Subroutine0
   \   000032                ; // Fall through to label ?Subroutine0
     18              HC595SendData();
     19          }

   \                                 In  segment BANKED_CODE, align 1, keep-with-next
   \                     ?Subroutine0:
   \   000000   12....       LCALL   ??HC595StoreData?relay
   \   000003                ; Setup parameters for call to function HC595SendData
   \   000003                ; Setup parameters for call to function HC595SendData
   \   000003                ; Setup parameters for call to function HC595SendData
   \   000003   12....       LCALL   ??HC595SendData?relay
   \   000006   7F01         MOV     R7,#0x1
   \   000008   02....       LJMP    ?BANKED_LEAVE_XDATA
     20          
     21          /**
     22          * Desc:控制电机正反转
     23          * Param: 0x00正转
     24          *        0xff反转
     25          */

   \                                 In  segment BANKED_CODE, align 1, keep-with-next
     26          void ControlStepMotor(uint8 flg){
   \                     ControlStepMotor:
   \   000000   74F5         MOV     A,#-0xb
   \   000002   12....       LCALL   ?BANKED_ENTER_XDATA
   \   000005                ; Saved register size: 11
   \   000005                ; Auto size: 0
   \   000005   89..         MOV     ?V0 + 2,R1
     27              uint8 u_StepNum, i;
     28              HC595IOInit();
   \   000007                ; Setup parameters for call to function HC595IOInit
   \   000007   12....       LCALL   ??HC595IOInit?relay
     29              for(i = 0; i<100;i++){
   \   00000A   7F64         MOV     R7,#0x64
     30                  for(u_StepNum = 0; u_StepNum < 8; u_StepNum++){
   \                     ??ControlStepMotor_0:
   \   00000C   7E00         MOV     R6,#0x0
     31                      HC595StoreData(0x00);
   \                     ??ControlStepMotor_1:
   \   00000E                ; Setup parameters for call to function HC595StoreData
   \   00000E   7900         MOV     R1,#0x0
   \   000010   12....       LCALL   ??HC595StoreData?relay
     32                      HC595StoreData(0x00);
   \   000013                ; Setup parameters for call to function HC595StoreData
   \   000013   7900         MOV     R1,#0x0
   \   000015   12....       LCALL   ??HC595StoreData?relay
     33                      HC595StoreData(0x00);
   \   000018                ; Setup parameters for call to function HC595StoreData
   \   000018   7900         MOV     R1,#0x0
   \   00001A   12....       LCALL   ??HC595StoreData?relay
     34                      HC595StoreData(0x00);
   \   00001D                ; Setup parameters for call to function HC595StoreData
   \   00001D   7900         MOV     R1,#0x0
   \   00001F   12....       LCALL   ??HC595StoreData?relay
     35                      if(flg == 0x00) //正转
   \   000022   E5..         MOV     A,?V0 + 2
   \   000024   8E..         MOV     ?V0 + 0,R6
   \   000026   700A         JNZ     ??ControlStepMotor_2
     36                          HC595StoreData(~motorForewardCode[u_StepNum] & 0x0f);
   \   000028                ; Setup parameters for call to function HC595StoreData
   \   000028   74..         MOV     A,#motorForewardCode & 0xff
   \   00002A   25..         ADD     A,?V0 + 0
   \   00002C   F582         MOV     DPL,A
   \   00002E   74..         MOV     A,#(motorForewardCode >> 8) & 0xff
   \   000030   8008         SJMP    ??ControlStepMotor_3
     37                      else 
     38                          HC595StoreData(~motorReversalCode[u_StepNum] & 0x0f);
   \                     ??ControlStepMotor_2:
   \   000032                ; Setup parameters for call to function HC595StoreData
   \   000032   74..         MOV     A,#motorReversalCode & 0xff
   \   000034   25..         ADD     A,?V0 + 0
   \   000036   F582         MOV     DPL,A
   \   000038   74..         MOV     A,#(motorReversalCode >> 8) & 0xff
   \                     ??ControlStepMotor_3:
   \   00003A   3400         ADDC    A,#0x0
   \   00003C   F583         MOV     DPH,A
   \   00003E   E0           MOVX    A,@DPTR
   \   00003F   F4           CPL     A
   \   000040   540F         ANL     A,#0xf
   \   000042   F9           MOV     R1,A
   \   000043   12....       LCALL   ??HC595StoreData?relay
     39                      Onboard_wait(4500);
   \   000046                ; Setup parameters for call to function Onboard_wait
   \   000046   7A94         MOV     R2,#-0x6c
   \   000048   7B11         MOV     R3,#0x11
   \   00004A   12....       LCALL   ??Onboard_wait?relay
     40                      HC595SendData();
   \   00004D                ; Setup parameters for call to function HC595SendData
   \   00004D   12....       LCALL   ??HC595SendData?relay
     41                  }
   \   000050   0E           INC     R6
   \   000051   EE           MOV     A,R6
   \   000052   C3           CLR     C
   \   000053   9408         SUBB    A,#0x8
   \   000055   40B7         JC      ??ControlStepMotor_1
     42              }
   \   000057   1F           DEC     R7
   \   000058   EF           MOV     A,R7
   \   000059   70B1         JNZ     ??ControlStepMotor_0
     43          }
   \   00005B   7F03         MOV     R7,#0x3
   \   00005D   02....       LJMP    ?BANKED_LEAVE_XDATA
     44          /**
     45          * Desc: 发送数据到595，控制蜂鸣器的开关
     46          * Param: flg 0x00 打开
     47          *            0xff 关闭
     48          */

   \                                 In  segment BANKED_CODE, align 1, keep-with-next
     49          void ControlBeep(uint8 flg){
   \                     ControlBeep:
   \   000000   74F7         MOV     A,#-0x9
   \   000002   12....       LCALL   ?BANKED_ENTER_XDATA
   \   000005                ; Saved register size: 9
   \   000005                ; Auto size: 0
   \   000005   E9           MOV     A,R1
   \   000006   FE           MOV     R6,A
     50              uint8 u_StepNum, i;
                           ^
Warning[Pe177]: variable "u_StepNum" was declared but never referenced

      uint8 u_StepNum, i;
                       ^
"E:\AndroidStu\ZSTACK-GTAMODBUS-v1.0（鄢文）\Projects\zstack\Utilities\Transmit\Source\ControlModule.c",50  Warning[Pe177]: 
          variable "i" was declared but never referenced
     51              HC595IOInit();
   \   000007                ; Setup parameters for call to function HC595IOInit
   \   000007   12....       LCALL   ??HC595IOInit?relay
     52              HC595StoreData(0x00);
   \   00000A                ; Setup parameters for call to function HC595StoreData
   \   00000A   7900         MOV     R1,#0x0
   \   00000C   12....       LCALL   ??HC595StoreData?relay
     53              HC595StoreData(0x00);
   \   00000F                ; Setup parameters for call to function HC595StoreData
   \   00000F   7900         MOV     R1,#0x0
   \   000011   12....       LCALL   ??HC595StoreData?relay
     54              HC595StoreData(0x00);
   \   000014                ; Setup parameters for call to function HC595StoreData
   \   000014   7900         MOV     R1,#0x0
   \   000016   12....       LCALL   ??HC595StoreData?relay
     55              HC595StoreData(0x00);
   \   000019                ; Setup parameters for call to function HC595StoreData
   \   000019   7900         MOV     R1,#0x0
   \   00001B   12....       LCALL   ??HC595StoreData?relay
     56              if(flg == 0x00)//开蜂鸣器
   \   00001E   EE           MOV     A,R6
   \   00001F   7004         JNZ     ??ControlBeep_0
     57                  HC595StoreData(0x20);
   \   000021                ; Setup parameters for call to function HC595StoreData
   \   000021   7920         MOV     R1,#0x20
   \   000023   8002         SJMP    ??ControlBeep_1
     58              else 
     59                  HC595StoreData(0x00);
   \                     ??ControlBeep_0:
   \   000025                ; Setup parameters for call to function HC595StoreData
   \   000025   7900         MOV     R1,#0x0
   \                     ??ControlBeep_1:
   \   000027   02....       LJMP    ?Subroutine0 & 0xFFFF
     60              HC595SendData();
     61          }
     62          /**
     63          * Desc: 发送数据到595，控制继电器的开关
     64          * Param: flg 0x00 打开
     65          *            0xff 关闭
     66          */

   \                                 In  segment BANKED_CODE, align 1, keep-with-next
     67          void ControlRelay(uint8 flg){
   \                     ControlRelay:
   \   000000   74F7         MOV     A,#-0x9
   \   000002   12....       LCALL   ?BANKED_ENTER_XDATA
   \   000005                ; Saved register size: 9
   \   000005                ; Auto size: 0
   \   000005   E9           MOV     A,R1
   \   000006   FE           MOV     R6,A
     68              uint8 u_StepNum, i;
                           ^
Warning[Pe177]: variable "u_StepNum" was declared but never referenced

      uint8 u_StepNum, i;
                       ^
"E:\AndroidStu\ZSTACK-GTAMODBUS-v1.0（鄢文）\Projects\zstack\Utilities\Transmit\Source\ControlModule.c",68  Warning[Pe177]: 
          variable "i" was declared but never referenced
     69              HC595IOInit();
   \   000007                ; Setup parameters for call to function HC595IOInit
   \   000007   12....       LCALL   ??HC595IOInit?relay
     70              HC595StoreData(0x00);
   \   00000A                ; Setup parameters for call to function HC595StoreData
   \   00000A   7900         MOV     R1,#0x0
   \   00000C   12....       LCALL   ??HC595StoreData?relay
     71              HC595StoreData(0x00);
   \   00000F                ; Setup parameters for call to function HC595StoreData
   \   00000F   7900         MOV     R1,#0x0
   \   000011   12....       LCALL   ??HC595StoreData?relay
     72              HC595StoreData(0x00);
   \   000014                ; Setup parameters for call to function HC595StoreData
   \   000014   7900         MOV     R1,#0x0
   \   000016   12....       LCALL   ??HC595StoreData?relay
     73              HC595StoreData(0x00);
   \   000019                ; Setup parameters for call to function HC595StoreData
   \   000019   7900         MOV     R1,#0x0
   \   00001B   12....       LCALL   ??HC595StoreData?relay
     74              if(flg == 0x00)//继电器开关闭合
   \   00001E   EE           MOV     A,R6
   \   00001F   7004         JNZ     ??ControlRelay_0
     75                  HC595StoreData(0x10);
   \   000021                ; Setup parameters for call to function HC595StoreData
   \   000021   7910         MOV     R1,#0x10
   \   000023   8002         SJMP    ??ControlRelay_1
     76              else 
     77                  HC595StoreData(0x00);
   \                     ??ControlRelay_0:
   \   000025                ; Setup parameters for call to function HC595StoreData
   \   000025   7900         MOV     R1,#0x0
   \                     ??ControlRelay_1:
   \   000027   02....       LJMP    ?Subroutine0 & 0xFFFF
     78              HC595SendData();
     79          }
     80          
     81          /**
     82          * 初始化HC595的IO口
     83          */

   \                                 In  segment BANKED_CODE, align 1, keep-with-next
     84          void HC595IOInit(void){
   \                     HC595IOInit:
   \   000000                ; Saved register size: 0
   \   000000                ; Auto size: 0
     85              IO_DIR_PORT_PIN(0, 0, IO_OUT);
   \   000000   43FD01       ORL     0xfd,#0x1
     86              IO_DIR_PORT_PIN(0, 1, IO_OUT);
   \   000003   43FD02       ORL     0xfd,#0x2
     87              IO_DIR_PORT_PIN(0, 4, IO_OUT);
   \   000006   43FD10       ORL     0xfd,#0x10
     88              IO_DIR_PORT_PIN(1, 2, IO_OUT);
   \   000009   43FE04       ORL     0xfe,#0x4
     89              EN = 0;
   \   00000C   C292         CLR     0x90.2
     90          }
   \   00000E   02....       LJMP    ?BRET
   \   000011                REQUIRE P0DIR
   \   000011                REQUIRE P1DIR
   \   000011                REQUIRE _A_P1
     91          
     92          /**
     93          * 将val数据存入595锁存器
     94          */

   \                                 In  segment BANKED_CODE, align 1, keep-with-next
     95          void HC595StoreData(uint8 val){
   \                     HC595StoreData:
   \   000000   C0..         PUSH    ?V0 + 0
   \   000002   C0..         PUSH    ?V0 + 1
   \   000004                ; Saved register size: 2
   \   000004                ; Auto size: 0
     96              uint8 i;
     97              for(i = 0; i < 8; i++){
   \   000004   7A00         MOV     R2,#0x0
     98                  if((val << i) & 0x80){
   \                     ??HC595StoreData_0:
   \   000006   89..         MOV     ?V0 + 0,R1
   \   000008   75..00       MOV     ?V0 + 1,#0x0
   \   00000B   EA           MOV     A,R2
   \   00000C   78..         MOV     R0,#?V0 + 0
   \   00000E   12....       LCALL   ?S_SHL
   \   000011   E5..         MOV     A,?V0 + 0
   \   000013   5480         ANL     A,#0x80
   \   000015   6004         JZ      ??HC595StoreData_1
     99                      DI = 1;
   \   000017   D280         SETB    0x80.0
   \   000019   8002         SJMP    ??HC595StoreData_2
    100                  } else {
    101                      DI = 0;
   \                     ??HC595StoreData_1:
   \   00001B   C280         CLR     0x80.0
    102                  }
    103                  SCLK = 0;
   \                     ??HC595StoreData_2:
   \   00001D   C281         CLR     0x80.1
    104                  SCLK = 1;
   \   00001F   D281         SETB    0x80.1
    105              }
   \   000021   0A           INC     R2
   \   000022   EA           MOV     A,R2
   \   000023   C3           CLR     C
   \   000024   9408         SUBB    A,#0x8
   \   000026   40DE         JC      ??HC595StoreData_0
    106          }
   \   000028   D0..         POP     ?V0 + 1
   \   00002A   D0..         POP     ?V0 + 0
   \   00002C   02....       LJMP    ?BRET
   \   00002F                REQUIRE _A_P0
    107          
    108          /**
    109          * 将锁存器中的数据并行输出，释放数据
    110          */

   \                                 In  segment BANKED_CODE, align 1, keep-with-next
    111          void HC595SendData(void){
   \                     HC595SendData:
   \   000000                ; Saved register size: 0
   \   000000                ; Auto size: 0
    112              RCLK = 0;
   \   000000   C284         CLR     0x80.4
    113              RCLK = 1;
   \   000002   D284         SETB    0x80.4
    114          }
   \   000004   02....       LJMP    ?BRET
   \   000007                REQUIRE _A_P0

   \                                 In  segment BANK_RELAYS, align 1
   \                     ??DisplaySmg?relay:
   \   000000   12....       LCALL   ?BDISPATCH
   \   000003   ......       DC24    DisplaySmg

   \                                 In  segment BANK_RELAYS, align 1
   \                     ??ControlStepMotor?relay:
   \   000000   12....       LCALL   ?BDISPATCH
   \   000003   ......       DC24    ControlStepMotor

   \                                 In  segment BANK_RELAYS, align 1
   \                     ??ControlBeep?relay:
   \   000000   12....       LCALL   ?BDISPATCH
   \   000003   ......       DC24    ControlBeep

   \                                 In  segment BANK_RELAYS, align 1
   \                     ??ControlRelay?relay:
   \   000000   12....       LCALL   ?BDISPATCH
   \   000003   ......       DC24    ControlRelay

   \                                 In  segment BANK_RELAYS, align 1
   \                     ??HC595IOInit?relay:
   \   000000   12....       LCALL   ?BDISPATCH
   \   000003   ......       DC24    HC595IOInit

   \                                 In  segment BANK_RELAYS, align 1
   \                     ??HC595StoreData?relay:
   \   000000   12....       LCALL   ?BDISPATCH
   \   000003   ......       DC24    HC595StoreData

   \                                 In  segment BANK_RELAYS, align 1
   \                     ??HC595SendData?relay:
   \   000000   12....       LCALL   ?BDISPATCH
   \   000003   ......       DC24    HC595SendData
    115          

   Maximum stack usage in bytes:

   ISTACK PSTACK XSTACK Function
   ------ ------ ------ --------
       0      0      9  ControlBeep
                          0 0  9 -> HC595IOInit
                          0 0  9 -> HC595SendData
                          0 0  9 -> HC595StoreData
       0      0      9  ControlRelay
                          0 0  9 -> HC595IOInit
                          0 0  9 -> HC595SendData
                          0 0  9 -> HC595StoreData
       0      0     11  ControlStepMotor
                          0 0 11 -> HC595IOInit
                          0 0 11 -> HC595SendData
                          0 0 11 -> HC595StoreData
                          0 0 11 -> Onboard_wait
       0      0      9  DisplaySmg
                          0 0  9 -> HC595IOInit
                          0 0  9 -> HC595SendData
                          0 0  9 -> HC595StoreData
       0      0     11  HC595IOInit
       0      0     11  HC595SendData
       2      0     11  HC595StoreData


   Segment part sizes:

   Bytes  Function/Label
   -----  --------------
       6  ??ControlBeep?relay
       6  ??ControlRelay?relay
       6  ??ControlStepMotor?relay
       6  ??DisplaySmg?relay
       6  ??HC595IOInit?relay
       6  ??HC595SendData?relay
       6  ??HC595StoreData?relay
      11  ?Subroutine0
      42  ControlBeep
      42  ControlRelay
      96  ControlStepMotor
      50  DisplaySmg
      17  HC595IOInit
       7  HC595SendData
      47  HC595StoreData
       1  P0DIR
       1  P1DIR
       1  _A_P0
       1  _A_P1
       8  motorForewardCode
       8  motorReversalCode
      10  smgCode

 
 312 bytes in segment BANKED_CODE
  42 bytes in segment BANK_RELAYS
   4 bytes in segment SFR_AN
  26 bytes in segment XDATA_ROM_C
 
 354 bytes of CODE  memory
  26 bytes of CONST memory
   0 bytes of DATA  memory (+ 4 bytes shared)

Errors: none
Warnings: 4
